target datalayout = "e-m:e-p270:32:32-p271:32:32-p272:64:64-i64:64-i128:128-f80:128-n8:16:32:64-S128"
target triple = "x86_64-pc-linux-gnu"

%struct.pubkey = type { i32, ptr, i64 }
%struct.anon = type { i32, ptr, i64, [10 x %struct.pubkey] }

@.str.2 = private unnamed_addr constant [40 x i8] c"../openssl/test/evp_pkey_dparams_test.c\00", align 1
@.str.3 = private unnamed_addr constant [84 x i8] c"in = BIO_new_mem_buf(pkey_params[id].param_bin, (int)pkey_params[id].param_bin_len)\00", align 1
@.str.4 = private unnamed_addr constant [37 x i8] c"d2i_KeyParams_bio(type, &in_key, in)\00", align 1
@.str.7 = private unnamed_addr constant [2 x i8] c"0\00", align 1
@.str.12 = private unnamed_addr constant [20 x i8] c"Not applicable test\00", align 1
@.str.13 = private unnamed_addr constant [79 x i8] c"EVP_PKEY_set1_encoded_public_key(in_key, keys[i].key_bin, keys[i].key_bin_len)\00", align 1
@.str.14 = private unnamed_addr constant [19 x i8] c"Test key index #%d\00", align 1

; Function Attrs: nounwind uwtable
define internal i32 @set_enc_pubkey_test(i32 noundef %0) #0 {
  %2 = alloca i32, align 4
  %3 = alloca i32, align 4
  %4 = alloca i32, align 4
  %5 = alloca i32, align 4
  %6 = alloca ptr, align 8
  %7 = alloca ptr, align 8
  %8 = alloca i32, align 4
  %9 = alloca ptr, align 8
  %10 = alloca i32, align 4
  store i32 %0, ptr %3, align 4, !tbaa !4
  call void @llvm.lifetime.start.p0(i64 4, ptr %4) #3
  call void @llvm.lifetime.start.p0(i64 4, ptr %5) #3
  call void @llvm.lifetime.start.p0(i64 8, ptr %6) #3
  store ptr null, ptr %6, align 8, !tbaa !8
  call void @llvm.lifetime.start.p0(i64 8, ptr %7) #3
  store ptr null, ptr %7, align 8, !tbaa !11
  call void @llvm.lifetime.start.p0(i64 4, ptr %8) #3
  %11 = load i32, ptr %3, align 4, !tbaa !4
  %12 = sext i32 %11 to i64
  %13 = getelementptr inbounds [3 x %struct.anon], ptr @pkey_params, i64 0, i64 %12
  %14 = getelementptr inbounds nuw %struct.anon, ptr %13, i32 0, i32 0
  %15 = load i32, ptr %14, align 8, !tbaa !13
  store i32 %15, ptr %8, align 4, !tbaa !4
  call void @llvm.lifetime.start.p0(i64 8, ptr %9) #3
  %16 = load i32, ptr %3, align 4, !tbaa !4
  %17 = sext i32 %16 to i64
  %18 = getelementptr inbounds [3 x %struct.anon], ptr @pkey_params, i64 0, i64 %17
  %19 = getelementptr inbounds nuw %struct.anon, ptr %18, i32 0, i32 3
  %20 = getelementptr inbounds [10 x %struct.pubkey], ptr %19, i64 0, i64 0
  store ptr %20, ptr %9, align 8, !tbaa !20
  %21 = load ptr, ptr %9, align 8, !tbaa !20
  %22 = getelementptr inbounds %struct.pubkey, ptr %21, i64 0
  %23 = getelementptr inbounds nuw %struct.pubkey, ptr %22, i32 0, i32 1
  %24 = load ptr, ptr %23, align 8, !tbaa !22
  %25 = icmp eq ptr %24, null
  br i1 %25, label %26, label %28

26:                                               ; preds = %1
  %27 = call i32 (ptr, i32, ptr, ...) @test_skip(ptr noundef @.str.2, i32 noundef 282, ptr noundef @.str.12)
  store i32 %27, ptr %2, align 4
  store i32 1, ptr %10, align 4
  br label %138

28:                                               ; preds = %1
  %29 = load i32, ptr %3, align 4, !tbaa !4
  %30 = sext i32 %29 to i64
  %31 = getelementptr inbounds [3 x %struct.anon], ptr @pkey_params, i64 0, i64 %30
  %32 = getelementptr inbounds nuw %struct.anon, ptr %31, i32 0, i32 1
  %33 = load ptr, ptr %32, align 8, !tbaa !17
  %34 = load i32, ptr %3, align 4, !tbaa !4
  %35 = sext i32 %34 to i64
  %36 = getelementptr inbounds [3 x %struct.anon], ptr @pkey_params, i64 0, i64 %35
  %37 = getelementptr inbounds nuw %struct.anon, ptr %36, i32 0, i32 2
  %38 = load i64, ptr %37, align 8, !tbaa !18
  %39 = trunc i64 %38 to i32
  %40 = call ptr @BIO_new_mem_buf(ptr noundef %33, i32 noundef %39)
  store ptr %40, ptr %6, align 8, !tbaa !8
  %41 = call i32 @test_ptr(ptr noundef @.str.2, i32 noundef 285, ptr noundef @.str.3, ptr noundef %40)
  %42 = icmp ne i32 %41, 0
  br i1 %42, label %43, label %49

43:                                               ; preds = %28
  %44 = load i32, ptr %8, align 4, !tbaa !4
  %45 = load ptr, ptr %6, align 8, !tbaa !8
  %46 = call ptr @d2i_KeyParams_bio(i32 noundef %44, ptr noundef %7, ptr noundef %45)
  %47 = call i32 @test_ptr(ptr noundef @.str.2, i32 noundef 287, ptr noundef @.str.4, ptr noundef %46)
  %48 = icmp ne i32 %47, 0
  br label %49

49:                                               ; preds = %43, %28
  %50 = phi i1 [ false, %28 ], [ %48, %43 ]
  %51 = zext i1 %50 to i32
  store i32 %51, ptr %4, align 4, !tbaa !4
  store i32 0, ptr %5, align 4, !tbaa !4
  br label %52

52:                                               ; preds = %130, %49
  %53 = load i32, ptr %4, align 4, !tbaa !4
  %54 = icmp ne i32 %53, 0
  br i1 %54, label %55, label %66

55:                                               ; preds = %52
  %56 = load i32, ptr %5, align 4, !tbaa !4
  %57 = icmp slt i32 %56, 10
  br i1 %57, label %58, label %66

58:                                               ; preds = %55
  %59 = load ptr, ptr %9, align 8, !tbaa !20
  %60 = load i32, ptr %5, align 4, !tbaa !4
  %61 = sext i32 %60 to i64
  %62 = getelementptr inbounds %struct.pubkey, ptr %59, i64 %61
  %63 = getelementptr inbounds nuw %struct.pubkey, ptr %62, i32 0, i32 1
  %64 = load ptr, ptr %63, align 8, !tbaa !22
  %65 = icmp ne ptr %64, null
  br label %66

66:                                               ; preds = %58, %55, %52
  %67 = phi i1 [ false, %55 ], [ false, %52 ], [ %65, %58 ]
  br i1 %67, label %68, label %133

68:                                               ; preds = %66
  %69 = load ptr, ptr %9, align 8, !tbaa !20
  %70 = load i32, ptr %5, align 4, !tbaa !4
  %71 = sext i32 %70 to i64
  %72 = getelementptr inbounds %struct.pubkey, ptr %69, i64 %71
  %73 = getelementptr inbounds nuw %struct.pubkey, ptr %72, i32 0, i32 0
  %74 = load i32, ptr %73, align 8, !tbaa !24
  %75 = icmp ne i32 %74, 0
  br i1 %75, label %76, label %101

76:                                               ; preds = %68
  %77 = call i32 @ERR_set_mark()
  %78 = load i32, ptr %4, align 4, !tbaa !4
  %79 = icmp ne i32 %78, 0
  br i1 %79, label %80, label %97

80:                                               ; preds = %76
  %81 = load ptr, ptr %7, align 8, !tbaa !11
  %82 = load ptr, ptr %9, align 8, !tbaa !20
  %83 = load i32, ptr %5, align 4, !tbaa !4
  %84 = sext i32 %83 to i64
  %85 = getelementptr inbounds %struct.pubkey, ptr %82, i64 %84
  %86 = getelementptr inbounds nuw %struct.pubkey, ptr %85, i32 0, i32 1
  %87 = load ptr, ptr %86, align 8, !tbaa !22
  %88 = load ptr, ptr %9, align 8, !tbaa !20
  %89 = load i32, ptr %5, align 4, !tbaa !4
  %90 = sext i32 %89 to i64
  %91 = getelementptr inbounds %struct.pubkey, ptr %88, i64 %90
  %92 = getelementptr inbounds nuw %struct.pubkey, ptr %91, i32 0, i32 2
  %93 = load i64, ptr %92, align 8, !tbaa !25
  %94 = call i32 @EVP_PKEY_set1_encoded_public_key(ptr noundef %81, ptr noundef %87, i64 noundef %93)
  %95 = call i32 @test_int_le(ptr noundef @.str.2, i32 noundef 296, ptr noundef @.str.13, ptr noundef @.str.7, i32 noundef %94, i32 noundef 0)
  %96 = icmp ne i32 %95, 0
  br label %97

97:                                               ; preds = %80, %76
  %98 = phi i1 [ false, %76 ], [ %96, %80 ]
  %99 = zext i1 %98 to i32
  store i32 %99, ptr %4, align 4, !tbaa !4
  %100 = call i32 @ERR_pop_to_mark()
  br label %124

101:                                              ; preds = %68
  %102 = load i32, ptr %4, align 4, !tbaa !4
  %103 = icmp ne i32 %102, 0
  br i1 %103, label %104, label %121

104:                                              ; preds = %101
  %105 = load ptr, ptr %7, align 8, !tbaa !11
  %106 = load ptr, ptr %9, align 8, !tbaa !20
  %107 = load i32, ptr %5, align 4, !tbaa !4
  %108 = sext i32 %107 to i64
  %109 = getelementptr inbounds %struct.pubkey, ptr %106, i64 %108
  %110 = getelementptr inbounds nuw %struct.pubkey, ptr %109, i32 0, i32 1
  %111 = load ptr, ptr %110, align 8, !tbaa !22
  %112 = load ptr, ptr %9, align 8, !tbaa !20
  %113 = load i32, ptr %5, align 4, !tbaa !4
  %114 = sext i32 %113 to i64
  %115 = getelementptr inbounds %struct.pubkey, ptr %112, i64 %114
  %116 = getelementptr inbounds nuw %struct.pubkey, ptr %115, i32 0, i32 2
  %117 = load i64, ptr %116, align 8, !tbaa !25
  %118 = call i32 @EVP_PKEY_set1_encoded_public_key(ptr noundef %105, ptr noundef %111, i64 noundef %117)
  %119 = call i32 @test_int_gt(ptr noundef @.str.2, i32 noundef 303, ptr noundef @.str.13, ptr noundef @.str.7, i32 noundef %118, i32 noundef 0)
  %120 = icmp ne i32 %119, 0
  br label %121

121:                                              ; preds = %104, %101
  %122 = phi i1 [ false, %101 ], [ %120, %104 ]
  %123 = zext i1 %122 to i32
  store i32 %123, ptr %4, align 4, !tbaa !4
  br label %124

124:                                              ; preds = %121, %97
  %125 = load i32, ptr %4, align 4, !tbaa !4
  %126 = icmp ne i32 %125, 0
  br i1 %126, label %129, label %127

127:                                              ; preds = %124
  %128 = load i32, ptr %5, align 4, !tbaa !4
  call void (ptr, i32, ptr, ...) @test_info(ptr noundef @.str.2, i32 noundef 306, ptr noundef @.str.14, i32 noundef %128)
  br label %129

129:                                              ; preds = %127, %124
  br label %130

130:                                              ; preds = %129
  %131 = load i32, ptr %5, align 4, !tbaa !4
  %132 = add nsw i32 %131, 1
  store i32 %132, ptr %5, align 4, !tbaa !4
  br label %52, !llvm.loop !26

133:                                              ; preds = %66
  %134 = load ptr, ptr %6, align 8, !tbaa !8
  %135 = call i32 @BIO_free(ptr noundef %134)
  %136 = load ptr, ptr %7, align 8, !tbaa !11
  call void @EVP_PKEY_free(ptr noundef %136)
  %137 = load i32, ptr %4, align 4, !tbaa !4
  store i32 %137, ptr %2, align 4
  store i32 1, ptr %10, align 4
  br label %138

138:                                              ; preds = %133, %26
  call void @llvm.lifetime.end.p0(i64 8, ptr %9) #3
  call void @llvm.lifetime.end.p0(i64 4, ptr %8) #3
  call void @llvm.lifetime.end.p0(i64 8, ptr %7) #3
  call void @llvm.lifetime.end.p0(i64 8, ptr %6) #3
  call void @llvm.lifetime.end.p0(i64 4, ptr %5) #3
  call void @llvm.lifetime.end.p0(i64 4, ptr %4) #3
  %139 = load i32, ptr %2, align 4
  ret i32 %139
}